target datalayout = "e-m:e-p270:32:32-p271:32:32-p272:64:64-i64:64-i128:128-f80:128-n8:16:32:64-S128"
target triple = "x86_64-pc-linux-gnu"

%"class.cv::Mat" = type { i32, i32, i32, i32, ptr, ptr, ptr, ptr, ptr, ptr, %"struct.cv::MatSize", %"struct.cv::MatStep" }
%"struct.cv::MatSize" = type { ptr }
%"struct.cv::MatStep" = type { ptr, [2 x i64] }
%"class.cv::Size_" = type { i32, i32 }
%"class.cv::_InputArray" = type { i32, ptr, %"class.cv::Size_" }
%"struct.std::_Vector_base.5" = type { %"struct.std::_Vector_base<cv::Mat, std::allocator<cv::Mat>>::_Vector_impl" }
%"struct.std::_Vector_base<cv::Mat, std::allocator<cv::Mat>>::_Vector_impl" = type { %"struct.std::_Vector_base<cv::Mat, std::allocator<cv::Mat>>::_Vector_impl_data" }
%"struct.std::_Vector_base<cv::Mat, std::allocator<cv::Mat>>::_Vector_impl_data" = type { ptr, ptr, ptr }
%"class.std::vector.4" = type { %"struct.std::_Vector_base.5" }

; Function Attrs: mustprogress nounwind uwtable
define linkonce_odr hidden void @_ZNSt15__new_allocatorIN2cv3MatEEC2Ev(ptr noundef nonnull align 1 dereferenceable(1) %0) unnamed_addr #7 comdat align 2 {
  %2 = alloca ptr, align 8
  store ptr %0, ptr %2, align 8, !tbaa !611
  ret void
}

; Function Attrs: mustprogress nounwind uwtable
define linkonce_odr hidden void @_ZNSt12_Vector_baseIN2cv3MatESaIS1_EE17_Vector_impl_dataC2Ev(ptr noundef nonnull align 8 dereferenceable(24) %0) unnamed_addr #7 comdat align 2 {
  %2 = alloca ptr, align 8
  store ptr %0, ptr %2, align 8, !tbaa !609
  %3 = load ptr, ptr %2, align 8
  %4 = getelementptr inbounds nuw %"struct.std::_Vector_base<cv::Mat, std::allocator<cv::Mat>>::_Vector_impl_data", ptr %3, i32 0, i32 0
  store ptr null, ptr %4, align 8, !tbaa !150
  %5 = getelementptr inbounds nuw %"struct.std::_Vector_base<cv::Mat, std::allocator<cv::Mat>>::_Vector_impl_data", ptr %3, i32 0, i32 1
  store ptr null, ptr %5, align 8, !tbaa !148
  %6 = getelementptr inbounds nuw %"struct.std::_Vector_base<cv::Mat, std::allocator<cv::Mat>>::_Vector_impl_data", ptr %3, i32 0, i32 2
  store ptr null, ptr %6, align 8, !tbaa !307
  ret void
}

; Function Attrs: mustprogress nounwind uwtable
define linkonce_odr hidden void @_ZNSaIN2cv3MatEEC2Ev(ptr noundef nonnull align 1 dereferenceable(1) %0) unnamed_addr #7 comdat align 2 {
  %2 = alloca ptr, align 8
  store ptr %0, ptr %2, align 8, !tbaa !607
  %3 = load ptr, ptr %2, align 8
  call void @_ZNSt15__new_allocatorIN2cv3MatEEC2Ev(ptr noundef nonnull align 1 dereferenceable(1) %3) #3
  ret void
}

; Function Attrs: mustprogress nounwind uwtable
define linkonce_odr hidden void @_ZNSt12_Vector_baseIN2cv3MatESaIS1_EE12_Vector_implC2Ev(ptr noundef nonnull align 8 dereferenceable(24) %0) unnamed_addr #7 comdat align 2 {
  %2 = alloca ptr, align 8
  store ptr %0, ptr %2, align 8, !tbaa !605
  %3 = load ptr, ptr %2, align 8
  call void @_ZNSaIN2cv3MatEEC2Ev(ptr noundef nonnull align 1 dereferenceable(1) %3) #3
  call void @_ZNSt12_Vector_baseIN2cv3MatESaIS1_EE17_Vector_impl_dataC2Ev(ptr noundef nonnull align 8 dereferenceable(24) %3) #3
  ret void
}

; Function Attrs: mustprogress nounwind uwtable
define linkonce_odr hidden void @_ZNSt12_Vector_baseIN2cv3MatESaIS1_EEC2Ev(ptr noundef nonnull align 8 dereferenceable(24) %0) unnamed_addr #7 comdat align 2 {
  %2 = alloca ptr, align 8
  store ptr %0, ptr %2, align 8, !tbaa !603
  %3 = load ptr, ptr %2, align 8
  %4 = getelementptr inbounds nuw %"struct.std::_Vector_base.5", ptr %3, i32 0, i32 0
  call void @_ZNSt12_Vector_baseIN2cv3MatESaIS1_EE12_Vector_implC2Ev(ptr noundef nonnull align 8 dereferenceable(24) %4) #3
  ret void
}

; Function Attrs: mustprogress uwtable
define hidden void @_ZNK2cv7details5FastX10detectImplERKNS_3MatERSt6vectorINS_8KeyPointESaIS6_EERS5_IS2_SaIS2_EES4_(ptr noundef nonnull align 8 dereferenceable(32) %0, ptr noundef nonnull align 8 dereferenceable(96) %1, ptr noundef nonnull align 8 dereferenceable(24) %2, ptr noundef nonnull align 8 dereferenceable(24) %3, ptr noundef nonnull align 8 dereferenceable(96) %4) #5 align 2 personality ptr @__gxx_personality_v0 {
  %6 = alloca ptr, align 8
  %7 = alloca ptr, align 8
  %8 = alloca ptr, align 8
  %9 = alloca ptr, align 8
  %10 = alloca ptr, align 8
  %11 = alloca %"class.std::vector.4", align 8
  %12 = alloca ptr, align 8
  %13 = alloca i32, align 4
  store ptr %0, ptr %6, align 8, !tbaa !9
  store ptr %1, ptr %7, align 8, !tbaa !47
  store ptr %2, ptr %8, align 8, !tbaa !94
  store ptr %3, ptr %9, align 8, !tbaa !92
  store ptr %4, ptr %10, align 8, !tbaa !47
  %14 = load ptr, ptr %6, align 8
  call void @llvm.lifetime.start.p0(i64 24, ptr %11) #3
  call void @_ZNSt6vectorIN2cv3MatESaIS1_EEC2Ev(ptr noundef nonnull align 8 dereferenceable(24) %11) #3
  %15 = load ptr, ptr %7, align 8, !tbaa !47
  %16 = load ptr, ptr %9, align 8, !tbaa !92
  %17 = load ptr, ptr %10, align 8, !tbaa !47
  invoke void @_ZNK2cv7details5FastX10detectImplERKNS_3MatERSt6vectorIS2_SaIS2_EES8_S4_(ptr noundef nonnull align 8 dereferenceable(32) %14, ptr noundef nonnull align 8 dereferenceable(96) %15, ptr noundef nonnull align 8 dereferenceable(24) %11, ptr noundef nonnull align 8 dereferenceable(24) %16, ptr noundef nonnull align 8 dereferenceable(96) %17)
          to label %18 unwind label %23

18:                                               ; preds = %5
  %19 = load ptr, ptr %9, align 8, !tbaa !92
  %20 = load ptr, ptr %8, align 8, !tbaa !94
  %21 = load ptr, ptr %10, align 8, !tbaa !47
  invoke void @_ZNK2cv7details5FastX13findKeyPointsERKSt6vectorINS_3MatESaIS3_EERS2_INS_8KeyPointESaIS8_EERKS3_(ptr noundef nonnull align 8 dereferenceable(32) %14, ptr noundef nonnull align 8 dereferenceable(24) %19, ptr noundef nonnull align 8 dereferenceable(24) %20, ptr noundef nonnull align 8 dereferenceable(96) %21)
          to label %22 unwind label %23

22:                                               ; preds = %18
  call void @_ZNSt6vectorIN2cv3MatESaIS1_EED2Ev(ptr noundef nonnull align 8 dereferenceable(24) %11) #3
  call void @llvm.lifetime.end.p0(i64 24, ptr %11) #3
  ret void

23:                                               ; preds = %18, %5
  %24 = landingpad { ptr, i32 }
          cleanup
  %25 = extractvalue { ptr, i32 } %24, 0
  store ptr %25, ptr %12, align 8
  %26 = extractvalue { ptr, i32 } %24, 1
  store i32 %26, ptr %13, align 4
  call void @_ZNSt6vectorIN2cv3MatESaIS1_EED2Ev(ptr noundef nonnull align 8 dereferenceable(24) %11) #3
  call void @llvm.lifetime.end.p0(i64 24, ptr %11) #3
  br label %27

27:                                               ; preds = %23
  %28 = load ptr, ptr %12, align 8
  %29 = load i32, ptr %13, align 4
  %30 = insertvalue { ptr, i32 } poison, ptr %28, 0
  %31 = insertvalue { ptr, i32 } %30, i32 %29, 1
  resume { ptr, i32 } %31
}

; Function Attrs: inlinehint mustprogress uwtable
define linkonce_odr hidden void @_ZNK2cv11_InputArray6getMatEi(ptr dead_on_unwind noalias writable sret(%"class.cv::Mat") align 8 %0, ptr noundef nonnull align 8 dereferenceable(24) %1, i32 noundef %2) #12 comdat align 2 {
  %4 = alloca ptr, align 8
  %5 = alloca ptr, align 8
  %6 = alloca i32, align 4
  store ptr %0, ptr %4, align 8
  store ptr %1, ptr %5, align 8, !tbaa !31
  store i32 %2, ptr %6, align 4, !tbaa !3
  %7 = load ptr, ptr %5, align 8
  %8 = call noundef i32 @_ZNK2cv11_InputArray4kindEv(ptr noundef nonnull align 8 dereferenceable(24) %7)
  %9 = icmp eq i32 %8, 65536
  br i1 %9, label %10, label %16

10:                                               ; preds = %3
  %11 = load i32, ptr %6, align 4, !tbaa !3
  %12 = icmp slt i32 %11, 0
  br i1 %12, label %13, label %16

13:                                               ; preds = %10
  %14 = getelementptr inbounds nuw %"class.cv::_InputArray", ptr %7, i32 0, i32 1
  %15 = load ptr, ptr %14, align 8, !tbaa !174
  call void @_ZN2cv3MatC1ERKS0_(ptr noundef nonnull align 8 dereferenceable(96) %0, ptr noundef nonnull align 8 dereferenceable(96) %15)
  br label %18

16:                                               ; preds = %10, %3
  %17 = load i32, ptr %6, align 4, !tbaa !3
  call void @_ZNK2cv11_InputArray7getMat_Ei(ptr dead_on_unwind writable sret(%"class.cv::Mat") align 8 %0, ptr noundef nonnull align 8 dereferenceable(24) %7, i32 noundef %17)
  br label %18

18:                                               ; preds = %16, %13
  ret void
}

; Function Attrs: mustprogress nounwind uwtable
define linkonce_odr hidden void @_ZNSt6vectorIN2cv3MatESaIS1_EEC2Ev(ptr noundef nonnull align 8 dereferenceable(24) %0) unnamed_addr #7 comdat align 2 {
  %2 = alloca ptr, align 8
  store ptr %0, ptr %2, align 8, !tbaa !92
  %3 = load ptr, ptr %2, align 8
  call void @_ZNSt12_Vector_baseIN2cv3MatESaIS1_EEC2Ev(ptr noundef nonnull align 8 dereferenceable(24) %3) #3
  ret void
}

; Function Attrs: mustprogress uwtable
define hidden void @_ZNK2cv7details5FastX10detectImplERKNS_11_InputArrayERSt6vectorINS_8KeyPointESaIS6_EES4_(ptr noundef nonnull align 8 dereferenceable(32) %0, ptr noundef nonnull align 8 dereferenceable(24) %1, ptr noundef nonnull align 8 dereferenceable(24) %2, ptr noundef nonnull align 8 dereferenceable(24) %3) unnamed_addr #5 align 2 personality ptr @__gxx_personality_v0 {
  %5 = alloca ptr, align 8
  %6 = alloca ptr, align 8
  %7 = alloca ptr, align 8
  %8 = alloca ptr, align 8
  %9 = alloca %"class.std::vector.4", align 8
  %10 = alloca %"class.cv::Mat", align 8
  %11 = alloca ptr, align 8
  %12 = alloca i32, align 4
  %13 = alloca %"class.cv::Mat", align 8
  store ptr %0, ptr %5, align 8, !tbaa !9
  store ptr %1, ptr %6, align 8, !tbaa !31
  store ptr %2, ptr %7, align 8, !tbaa !94
  store ptr %3, ptr %8, align 8, !tbaa !31
  %14 = load ptr, ptr %5, align 8
  call void @llvm.lifetime.start.p0(i64 24, ptr %9) #3
  call void @_ZNSt6vectorIN2cv3MatESaIS1_EEC2Ev(ptr noundef nonnull align 8 dereferenceable(24) %9) #3
  call void @llvm.lifetime.start.p0(i64 96, ptr %10) #3
  %15 = load ptr, ptr %6, align 8, !tbaa !31
  invoke void @_ZNK2cv11_InputArray6getMatEi(ptr dead_on_unwind writable sret(%"class.cv::Mat") align 8 %10, ptr noundef nonnull align 8 dereferenceable(24) %15, i32 noundef -1)
          to label %16 unwind label %21

16:                                               ; preds = %4
  %17 = load ptr, ptr %7, align 8, !tbaa !94
  call void @llvm.lifetime.start.p0(i64 96, ptr %13) #3
  %18 = load ptr, ptr %8, align 8, !tbaa !31
  invoke void @_ZNK2cv11_InputArray6getMatEi(ptr dead_on_unwind writable sret(%"class.cv::Mat") align 8 %13, ptr noundef nonnull align 8 dereferenceable(24) %18, i32 noundef -1)
          to label %19 unwind label %25

19:                                               ; preds = %16
  invoke void @_ZNK2cv7details5FastX10detectImplERKNS_3MatERSt6vectorINS_8KeyPointESaIS6_EERS5_IS2_SaIS2_EES4_(ptr noundef nonnull align 8 dereferenceable(32) %14, ptr noundef nonnull align 8 dereferenceable(96) %10, ptr noundef nonnull align 8 dereferenceable(24) %17, ptr noundef nonnull align 8 dereferenceable(24) %9, ptr noundef nonnull align 8 dereferenceable(96) %13)
          to label %20 unwind label %29

20:                                               ; preds = %19
  call void @_ZN2cv3MatD1Ev(ptr noundef nonnull align 8 dereferenceable(96) %13) #3
  call void @llvm.lifetime.end.p0(i64 96, ptr %13) #3
  call void @_ZN2cv3MatD1Ev(ptr noundef nonnull align 8 dereferenceable(96) %10) #3
  call void @llvm.lifetime.end.p0(i64 96, ptr %10) #3
  call void @_ZNSt6vectorIN2cv3MatESaIS1_EED2Ev(ptr noundef nonnull align 8 dereferenceable(24) %9) #3
  call void @llvm.lifetime.end.p0(i64 24, ptr %9) #3
  ret void

21:                                               ; preds = %4
  %22 = landingpad { ptr, i32 }
          cleanup
  %23 = extractvalue { ptr, i32 } %22, 0
  store ptr %23, ptr %11, align 8
  %24 = extractvalue { ptr, i32 } %22, 1
  store i32 %24, ptr %12, align 4
  br label %34

25:                                               ; preds = %16
  %26 = landingpad { ptr, i32 }
          cleanup
  %27 = extractvalue { ptr, i32 } %26, 0
  store ptr %27, ptr %11, align 8
  %28 = extractvalue { ptr, i32 } %26, 1
  store i32 %28, ptr %12, align 4
  br label %33

29:                                               ; preds = %19
  %30 = landingpad { ptr, i32 }
          cleanup
  %31 = extractvalue { ptr, i32 } %30, 0
  store ptr %31, ptr %11, align 8
  %32 = extractvalue { ptr, i32 } %30, 1
  store i32 %32, ptr %12, align 4
  call void @_ZN2cv3MatD1Ev(ptr noundef nonnull align 8 dereferenceable(96) %13) #3
  br label %33

33:                                               ; preds = %29, %25
  call void @llvm.lifetime.end.p0(i64 96, ptr %13) #3
  call void @_ZN2cv3MatD1Ev(ptr noundef nonnull align 8 dereferenceable(96) %10) #3
  br label %34

34:                                               ; preds = %33, %21
  call void @llvm.lifetime.end.p0(i64 96, ptr %10) #3
  call void @_ZNSt6vectorIN2cv3MatESaIS1_EED2Ev(ptr noundef nonnull align 8 dereferenceable(24) %9) #3
  call void @llvm.lifetime.end.p0(i64 24, ptr %9) #3
  br label %35

35:                                               ; preds = %34
  %36 = load ptr, ptr %11, align 8
  %37 = load i32, ptr %12, align 4
  %38 = insertvalue { ptr, i32 } poison, ptr %36, 0
  %39 = insertvalue { ptr, i32 } %38, i32 %37, 1
  resume { ptr, i32 } %39
}