; Function Attrs: mustprogress uwtable
define hidden void @_ZNK2cv7details5FastX10detectImplERKNS_11_InputArrayERSt6vectorINS_8KeyPointESaIS6_EES4_(ptr noundef nonnull align 8 dereferenceable(32) %0, ptr noundef nonnull align 8 dereferenceable(24) %1, ptr noundef nonnull align 8 captures(none) dereferenceable(24) %2, ptr noundef nonnull align 8 dereferenceable(24) %3) unnamed_addr #5 align 2 personality ptr @__gxx_personality_v0 {
  %5 = alloca %"class.std::vector.4", align 8
  %6 = alloca %"class.std::vector.4", align 8
  %7 = alloca %"class.cv::Mat", align 8
  %8 = alloca %"class.cv::Mat", align 8
  call void @llvm.lifetime.start.p0(i64 24, ptr nonnull %6) #37
  call void @llvm.memset.p0.i64(ptr noundef nonnull align 8 dereferenceable(24) %6, i8 0, i64 24, i1 false)
  call void @llvm.lifetime.start.p0(i64 96, ptr nonnull %7) #37
  %9 = invoke noundef i32 @_ZNK2cv11_InputArray4kindEv(ptr noundef nonnull align 8 dereferenceable(24) %1)
          to label %.noexc unwind label %37

.noexc:                                           ; preds = %4
  %10 = icmp eq i32 %9, 65536
  br i1 %10, label %11, label %14

11:                                               ; preds = %.noexc
  %12 = getelementptr inbounds nuw i8, ptr %1, i64 8
  %13 = load ptr, ptr %12, align 8, !tbaa !43, !noalias !157
  invoke void @_ZN2cv3MatC1ERKS0_(ptr noundef nonnull align 8 dereferenceable(96) %7, ptr noundef nonnull align 8 dereferenceable(96) %13)
          to label %_ZNK2cv11_InputArray6getMatEi.exit unwind label %37

14:                                               ; preds = %.noexc
  invoke void @_ZNK2cv11_InputArray7getMat_Ei(ptr dead_on_unwind nonnull writable sret(%"class.cv::Mat") align 8 %7, ptr noundef nonnull align 8 dereferenceable(24) %1, i32 noundef -1)
          to label %_ZNK2cv11_InputArray6getMatEi.exit unwind label %37

_ZNK2cv11_InputArray6getMatEi.exit:               ; preds = %11, %14
  call void @llvm.lifetime.start.p0(i64 96, ptr nonnull %8) #37
  %15 = invoke noundef i32 @_ZNK2cv11_InputArray4kindEv(ptr noundef nonnull align 8 dereferenceable(24) %3)
          to label %.noexc11 unwind label %39

.noexc11:                                         ; preds = %_ZNK2cv11_InputArray6getMatEi.exit
  %16 = icmp eq i32 %15, 65536
  br i1 %16, label %17, label %20

17:                                               ; preds = %.noexc11
  %18 = getelementptr inbounds nuw i8, ptr %3, i64 8
  %19 = load ptr, ptr %18, align 8, !tbaa !43, !noalias !160
  invoke void @_ZN2cv3MatC1ERKS0_(ptr noundef nonnull align 8 dereferenceable(96) %8, ptr noundef nonnull align 8 dereferenceable(96) %19)
          to label %_ZNK2cv11_InputArray6getMatEi.exit14 unwind label %39

20:                                               ; preds = %.noexc11
  invoke void @_ZNK2cv11_InputArray7getMat_Ei(ptr dead_on_unwind nonnull writable sret(%"class.cv::Mat") align 8 %8, ptr noundef nonnull align 8 dereferenceable(24) %3, i32 noundef -1)
          to label %_ZNK2cv11_InputArray6getMatEi.exit14 unwind label %39

_ZNK2cv11_InputArray6getMatEi.exit14:             ; preds = %17, %20
  call void @llvm.lifetime.start.p0(i64 24, ptr nonnull %5) #37
  call void @llvm.memset.p0.i64(ptr noundef nonnull align 8 dereferenceable(24) %5, i8 0, i64 24, i1 false)
  invoke void @_ZNK2cv7details5FastX10detectImplERKNS_3MatERSt6vectorIS2_SaIS2_EES8_S4_(ptr noundef nonnull align 8 dereferenceable(32) %0, ptr noundef nonnull align 8 dereferenceable(96) %7, ptr noundef nonnull align 8 dereferenceable(24) %5, ptr noundef nonnull align 8 dereferenceable(24) %6, ptr noundef nonnull align 8 dereferenceable(96) %8)
          to label %21 unwind label %.body

21:                                               ; preds = %_ZNK2cv11_InputArray6getMatEi.exit14
  invoke void @_ZNK2cv7details5FastX13findKeyPointsERKSt6vectorINS_3MatESaIS3_EERS2_INS_8KeyPointESaIS8_EERKS3_(ptr noundef nonnull align 8 dereferenceable(32) %0, ptr noundef nonnull align 8 dereferenceable(24) %6, ptr noundef nonnull align 8 dereferenceable(24) %2, ptr noundef nonnull align 8 dereferenceable(96) %8)
          to label %22 unwind label %.body

22:                                               ; preds = %21
  %23 = load ptr, ptr %5, align 8, !tbaa !107
  %24 = getelementptr inbounds nuw i8, ptr %5, i64 8
  %25 = load ptr, ptr %24, align 8, !tbaa !105
  %.not4.i.i.i.i.i = icmp eq ptr %23, %25
  br i1 %.not4.i.i.i.i.i, label %_ZSt8_DestroyIPN2cv3MatES1_EvT_S3_RSaIT0_E.exit.i.i, label %.lr.ph.i.i.i.i.i

.lr.ph.i.i.i.i.i:                                 ; preds = %22, %.lr.ph.i.i.i.i.i
  %.05.i.i.i.i.i = phi ptr [ %26, %.lr.ph.i.i.i.i.i ], [ %23, %22 ]
  call void @_ZN2cv3MatD1Ev(ptr noundef nonnull align 8 dereferenceable(96) %.05.i.i.i.i.i) #37
  %26 = getelementptr inbounds nuw i8, ptr %.05.i.i.i.i.i, i64 96
  %.not.i.i.i.i.i = icmp eq ptr %26, %25
  br i1 %.not.i.i.i.i.i, label %_ZSt8_DestroyIPN2cv3MatES1_EvT_S3_RSaIT0_E.exitthread-pre-split.i.i, label %.lr.ph.i.i.i.i.i, !llvm.loop !147

_ZSt8_DestroyIPN2cv3MatES1_EvT_S3_RSaIT0_E.exitthread-pre-split.i.i: ; preds = %.lr.ph.i.i.i.i.i
  %.pr.i.i = load ptr, ptr %5, align 8, !tbaa !107
  br label %_ZSt8_DestroyIPN2cv3MatES1_EvT_S3_RSaIT0_E.exit.i.i

_ZSt8_DestroyIPN2cv3MatES1_EvT_S3_RSaIT0_E.exit.i.i: ; preds = %_ZSt8_DestroyIPN2cv3MatES1_EvT_S3_RSaIT0_E.exitthread-pre-split.i.i, %22
  %27 = phi ptr [ %.pr.i.i, %_ZSt8_DestroyIPN2cv3MatES1_EvT_S3_RSaIT0_E.exitthread-pre-split.i.i ], [ %23, %22 ]
  %.not.i.i.i.i = icmp eq ptr %27, null
  br i1 %.not.i.i.i.i, label %30, label %28

28:                                               ; preds = %_ZSt8_DestroyIPN2cv3MatES1_EvT_S3_RSaIT0_E.exit.i.i
  call void @_ZdlPv(ptr noundef nonnull %27) #38
  br label %30

.body:                                            ; preds = %21, %_ZNK2cv11_InputArray6getMatEi.exit14
  %29 = landingpad { ptr, i32 }
          cleanup
  call void @_ZNSt6vectorIN2cv3MatESaIS1_EED2Ev(ptr noundef nonnull align 8 dereferenceable(24) %5) #37
  call void @llvm.lifetime.end.p0(i64 24, ptr nonnull %5) #37
  call void @_ZN2cv3MatD1Ev(ptr noundef nonnull align 8 dereferenceable(96) %8) #37
  br label %41

30:                                               ; preds = %28, %_ZSt8_DestroyIPN2cv3MatES1_EvT_S3_RSaIT0_E.exit.i.i
  call void @llvm.lifetime.end.p0(i64 24, ptr nonnull %5) #37
  call void @_ZN2cv3MatD1Ev(ptr noundef nonnull align 8 dereferenceable(96) %8) #37
  call void @llvm.lifetime.end.p0(i64 96, ptr nonnull %8) #37
  call void @_ZN2cv3MatD1Ev(ptr noundef nonnull align 8 dereferenceable(96) %7) #37
  call void @llvm.lifetime.end.p0(i64 96, ptr nonnull %7) #37
  %31 = load ptr, ptr %6, align 8, !tbaa !107
  %32 = getelementptr inbounds nuw i8, ptr %6, i64 8
  %33 = load ptr, ptr %32, align 8, !tbaa !105
  %.not4.i.i.i.i = icmp eq ptr %31, %33
  br i1 %.not4.i.i.i.i, label %_ZSt8_DestroyIPN2cv3MatES1_EvT_S3_RSaIT0_E.exit.i, label %.lr.ph.i.i.i.i

.lr.ph.i.i.i.i:                                   ; preds = %30, %.lr.ph.i.i.i.i
  %.05.i.i.i.i = phi ptr [ %34, %.lr.ph.i.i.i.i ], [ %31, %30 ]
  call void @_ZN2cv3MatD1Ev(ptr noundef nonnull align 8 dereferenceable(96) %.05.i.i.i.i) #37
  %34 = getelementptr inbounds nuw i8, ptr %.05.i.i.i.i, i64 96
  %.not.i.i.i.i15 = icmp eq ptr %34, %33
  br i1 %.not.i.i.i.i15, label %_ZSt8_DestroyIPN2cv3MatES1_EvT_S3_RSaIT0_E.exitthread-pre-split.i, label %.lr.ph.i.i.i.i, !llvm.loop !147

_ZSt8_DestroyIPN2cv3MatES1_EvT_S3_RSaIT0_E.exitthread-pre-split.i: ; preds = %.lr.ph.i.i.i.i
  %.pr.i = load ptr, ptr %6, align 8, !tbaa !107
  br label %_ZSt8_DestroyIPN2cv3MatES1_EvT_S3_RSaIT0_E.exit.i

_ZSt8_DestroyIPN2cv3MatES1_EvT_S3_RSaIT0_E.exit.i: ; preds = %_ZSt8_DestroyIPN2cv3MatES1_EvT_S3_RSaIT0_E.exitthread-pre-split.i, %30
  %35 = phi ptr [ %.pr.i, %_ZSt8_DestroyIPN2cv3MatES1_EvT_S3_RSaIT0_E.exitthread-pre-split.i ], [ %31, %30 ]
  %.not.i.i.i = icmp eq ptr %35, null
  br i1 %.not.i.i.i, label %_ZNSt6vectorIN2cv3MatESaIS1_EED2Ev.exit, label %36

36:                                               ; preds = %_ZSt8_DestroyIPN2cv3MatES1_EvT_S3_RSaIT0_E.exit.i
  call void @_ZdlPv(ptr noundef nonnull %35) #38
  br label %_ZNSt6vectorIN2cv3MatESaIS1_EED2Ev.exit

_ZNSt6vectorIN2cv3MatESaIS1_EED2Ev.exit:          ; preds = %_ZSt8_DestroyIPN2cv3MatES1_EvT_S3_RSaIT0_E.exit.i, %36
  call void @llvm.lifetime.end.p0(i64 24, ptr nonnull %6) #37
  ret void

37:                                               ; preds = %14, %11, %4
  %38 = landingpad { ptr, i32 }
          cleanup
  br label %42

39:                                               ; preds = %20, %17, %_ZNK2cv11_InputArray6getMatEi.exit
  %40 = landingpad { ptr, i32 }
          cleanup
  br label %41

41:                                               ; preds = %.body, %39
  %.pn = phi { ptr, i32 } [ %29, %.body ], [ %40, %39 ]
  call void @llvm.lifetime.end.p0(i64 96, ptr nonnull %8) #37
  call void @_ZN2cv3MatD1Ev(ptr noundef nonnull align 8 dereferenceable(96) %7) #37
  br label %42

42:                                               ; preds = %41, %37
  %.pn.pn = phi { ptr, i32 } [ %.pn, %41 ], [ %38, %37 ]
  call void @llvm.lifetime.end.p0(i64 96, ptr nonnull %7) #37
  call void @_ZNSt6vectorIN2cv3MatESaIS1_EED2Ev(ptr noundef nonnull align 8 dereferenceable(24) %6) #37
  call void @llvm.lifetime.end.p0(i64 24, ptr nonnull %6) #37
  resume { ptr, i32 } %.pn.pn
}